; Function Attrs: nounwind uwtable
define hidden void @je_sec_postfork_parent(ptr noundef %0, ptr noundef readonly captures(none) %1) local_unnamed_addr #0 {
  %3 = getelementptr inbounds nuw i8, ptr %1, i64 64
  %4 = load i64, ptr %3, align 8, !tbaa !44
  %.not = icmp eq i64 %4, 0
  br i1 %.not, label %._crit_edge, label %.lr.ph

.lr.ph:                                           ; preds = %2
  %5 = getelementptr inbounds nuw i8, ptr %1, i64 104
  br label %6

._crit_edge:                                      ; preds = %6, %2
  ret void

6:                                                ; preds = %.lr.ph, %6
  %.05 = phi i64 [ 0, %.lr.ph ], [ %9, %6 ]
  %7 = load ptr, ptr %5, align 8, !tbaa !11
  %8 = getelementptr inbounds nuw %struct.sec_shard_s, ptr %7, i64 %.05
  tail call void @je_malloc_mutex_postfork_parent(ptr noundef %0, ptr noundef %8) #9
  %9 = add nuw i64 %.05, 1
  %10 = load i64, ptr %3, align 8, !tbaa !44
  %11 = icmp ult i64 %9, %10
  br i1 %11, label %6, label %._crit_edge, !llvm.loop !78
}